target datalayout = "e-m:e-p270:32:32-p271:32:32-p272:64:64-i64:64-i128:128-f80:128-n8:16:32:64-S128"
target triple = "x86_64-pc-linux-gnu"

%struct.ident_t = type { i32, i32, i32, i32, ptr }
%"struct.faiss::HeapArray.0" = type { i64, i64, ptr, ptr }

@1 = private unnamed_addr constant %struct.ident_t { i32 0, i32 514, i32 0, i32 22, ptr @0 }, align 8

; Function Attrs: mustprogress nounwind uwtable
define linkonce_odr noundef float @_ZNSt14numeric_limitsIfE3maxEv() #0 comdat align 2 {
  ret float 0x47EFFFFFE0000000
}

; Function Attrs: inlinehint mustprogress nounwind uwtable
define linkonce_odr noundef zeroext i1 @_ZN5faiss4CMaxIflE4cmp2Effll(float noundef %0, float noundef %1, i64 noundef %2, i64 noundef %3) #6 comdat align 2 {
  %5 = alloca float, align 4
  %6 = alloca float, align 4
  %7 = alloca i64, align 8
  %8 = alloca i64, align 8
  store float %0, ptr %5, align 4, !tbaa !24
  store float %1, ptr %6, align 4, !tbaa !24
  store i64 %2, ptr %7, align 8, !tbaa !9
  store i64 %3, ptr %8, align 8, !tbaa !9
  %9 = load float, ptr %5, align 4, !tbaa !24
  %10 = load float, ptr %6, align 4, !tbaa !24
  %11 = fcmp ogt float %9, %10
  br i1 %11, label %22, label %12

12:                                               ; preds = %4
  %13 = load float, ptr %5, align 4, !tbaa !24
  %14 = load float, ptr %6, align 4, !tbaa !24
  %15 = fcmp oeq float %13, %14
  br i1 %15, label %16, label %20

16:                                               ; preds = %12
  %17 = load i64, ptr %7, align 8, !tbaa !9
  %18 = load i64, ptr %8, align 8, !tbaa !9
  %19 = icmp sgt i64 %17, %18
  br label %20

20:                                               ; preds = %16, %12
  %21 = phi i1 [ false, %12 ], [ %19, %16 ]
  br label %22

22:                                               ; preds = %20, %4
  %23 = phi i1 [ true, %4 ], [ %21, %20 ]
  ret i1 %23
}

; Function Attrs: inlinehint mustprogress nounwind uwtable
define linkonce_odr noundef float @_ZN5faiss4CMaxIflE7neutralEv() #6 comdat align 2 {
  %1 = call noundef float @_ZNSt14numeric_limitsIfE3maxEv() #3
  ret float %1
}

; Function Attrs: inlinehint mustprogress uwtable
define linkonce_odr void @_ZN5faiss9heap_pushINS_4CMaxIflEEEEvmPNT_1TEPNS3_2TIES4_S6_(i64 noundef %0, ptr noundef %1, ptr noundef %2, float noundef %3, i64 noundef %4) #4 comdat {
  %6 = alloca i64, align 8
  %7 = alloca ptr, align 8
  %8 = alloca ptr, align 8
  %9 = alloca float, align 4
  %10 = alloca i64, align 8
  %11 = alloca i64, align 8
  %12 = alloca i64, align 8
  store i64 %0, ptr %6, align 8, !tbaa !9
  store ptr %1, ptr %7, align 8, !tbaa !22
  store ptr %2, ptr %8, align 8, !tbaa !23
  store float %3, ptr %9, align 4, !tbaa !24
  store i64 %4, ptr %10, align 8, !tbaa !9
  %13 = load ptr, ptr %7, align 8, !tbaa !22
  %14 = getelementptr inbounds float, ptr %13, i32 -1
  store ptr %14, ptr %7, align 8, !tbaa !22
  %15 = load ptr, ptr %8, align 8, !tbaa !23
  %16 = getelementptr inbounds i64, ptr %15, i32 -1
  store ptr %16, ptr %8, align 8, !tbaa !23
  call void @llvm.lifetime.start.p0(i64 8, ptr %11) #3
  %17 = load i64, ptr %6, align 8, !tbaa !9
  store i64 %17, ptr %11, align 8, !tbaa !9
  call void @llvm.lifetime.start.p0(i64 8, ptr %12) #3
  br label %18

18:                                               ; preds = %36, %5
  %19 = load i64, ptr %11, align 8, !tbaa !9
  %20 = icmp ugt i64 %19, 1
  br i1 %20, label %21, label %52

21:                                               ; preds = %18
  %22 = load i64, ptr %11, align 8, !tbaa !9
  %23 = lshr i64 %22, 1
  store i64 %23, ptr %12, align 8, !tbaa !9
  %24 = load float, ptr %9, align 4, !tbaa !24
  %25 = load ptr, ptr %7, align 8, !tbaa !22
  %26 = load i64, ptr %12, align 8, !tbaa !9
  %27 = getelementptr inbounds nuw float, ptr %25, i64 %26
  %28 = load float, ptr %27, align 4, !tbaa !24
  %29 = load i64, ptr %10, align 8, !tbaa !9
  %30 = load ptr, ptr %8, align 8, !tbaa !23
  %31 = load i64, ptr %12, align 8, !tbaa !9
  %32 = getelementptr inbounds nuw i64, ptr %30, i64 %31
  %33 = load i64, ptr %32, align 8, !tbaa !9
  %34 = call noundef zeroext i1 @_ZN5faiss4CMaxIflE4cmp2Effll(float noundef %24, float noundef %28, i64 noundef %29, i64 noundef %33)
  br i1 %34, label %36, label %35

35:                                               ; preds = %21
  br label %52

36:                                               ; preds = %21
  %37 = load ptr, ptr %7, align 8, !tbaa !22
  %38 = load i64, ptr %12, align 8, !tbaa !9
  %39 = getelementptr inbounds nuw float, ptr %37, i64 %38
  %40 = load float, ptr %39, align 4, !tbaa !24
  %41 = load ptr, ptr %7, align 8, !tbaa !22
  %42 = load i64, ptr %11, align 8, !tbaa !9
  %43 = getelementptr inbounds nuw float, ptr %41, i64 %42
  store float %40, ptr %43, align 4, !tbaa !24
  %44 = load ptr, ptr %8, align 8, !tbaa !23
  %45 = load i64, ptr %12, align 8, !tbaa !9
  %46 = getelementptr inbounds nuw i64, ptr %44, i64 %45
  %47 = load i64, ptr %46, align 8, !tbaa !9
  %48 = load ptr, ptr %8, align 8, !tbaa !23
  %49 = load i64, ptr %11, align 8, !tbaa !9
  %50 = getelementptr inbounds nuw i64, ptr %48, i64 %49
  store i64 %47, ptr %50, align 8, !tbaa !9
  %51 = load i64, ptr %12, align 8, !tbaa !9
  store i64 %51, ptr %11, align 8, !tbaa !9
  br label %18, !llvm.loop !75

52:                                               ; preds = %35, %18
  %53 = load float, ptr %9, align 4, !tbaa !24
  %54 = load ptr, ptr %7, align 8, !tbaa !22
  %55 = load i64, ptr %11, align 8, !tbaa !9
  %56 = getelementptr inbounds nuw float, ptr %54, i64 %55
  store float %53, ptr %56, align 4, !tbaa !24
  %57 = load i64, ptr %10, align 8, !tbaa !9
  %58 = load ptr, ptr %8, align 8, !tbaa !23
  %59 = load i64, ptr %11, align 8, !tbaa !9
  %60 = getelementptr inbounds nuw i64, ptr %58, i64 %59
  store i64 %57, ptr %60, align 8, !tbaa !9
  call void @llvm.lifetime.end.p0(i64 8, ptr %12) #3
  call void @llvm.lifetime.end.p0(i64 8, ptr %11) #3
  ret void
}

; Function Attrs: noinline noreturn nounwind uwtable
define linkonce_odr hidden void @__clang_call_terminate(ptr noundef %0) #5 comdat {
  %2 = call ptr @__cxa_begin_catch(ptr %0) #3
  call void @_ZSt9terminatev() #18
  unreachable
}

; Function Attrs: inlinehint mustprogress uwtable
define linkonce_odr void @_ZN5faiss12heap_heapifyINS_4CMaxIflEEEEvmPNT_1TEPNS3_2TIEPKS4_PKS6_m(i64 noundef %0, ptr noundef %1, ptr noundef %2, ptr noundef %3, ptr noundef %4, i64 noundef %5) #4 comdat {
  %7 = alloca i64, align 8
  %8 = alloca ptr, align 8
  %9 = alloca ptr, align 8
  %10 = alloca ptr, align 8
  %11 = alloca ptr, align 8
  %12 = alloca i64, align 8
  %13 = alloca i64, align 8
  %14 = alloca i64, align 8
  %15 = alloca i64, align 8
  store i64 %0, ptr %7, align 8, !tbaa !9
  store ptr %1, ptr %8, align 8, !tbaa !22
  store ptr %2, ptr %9, align 8, !tbaa !23
  store ptr %3, ptr %10, align 8, !tbaa !22
  store ptr %4, ptr %11, align 8, !tbaa !23
  store i64 %5, ptr %12, align 8, !tbaa !9
  %16 = load i64, ptr %12, align 8, !tbaa !9
  %17 = icmp ugt i64 %16, 0
  br i1 %17, label %18, label %19

18:                                               ; preds = %6
  br label %19

19:                                               ; preds = %18, %6
  %20 = load ptr, ptr %11, align 8, !tbaa !23
  %21 = icmp ne ptr %20, null
  br i1 %21, label %22, label %45

22:                                               ; preds = %19
  call void @llvm.lifetime.start.p0(i64 8, ptr %13) #3
  store i64 0, ptr %13, align 8, !tbaa !9
  br label %23

23:                                               ; preds = %41, %22
  %24 = load i64, ptr %13, align 8, !tbaa !9
  %25 = load i64, ptr %12, align 8, !tbaa !9
  %26 = icmp ult i64 %24, %25
  br i1 %26, label %28, label %27

27:                                               ; preds = %23
  call void @llvm.lifetime.end.p0(i64 8, ptr %13) #3
  br label %44

28:                                               ; preds = %23
  %29 = load i64, ptr %13, align 8, !tbaa !9
  %30 = add i64 %29, 1
  %31 = load ptr, ptr %8, align 8, !tbaa !22
  %32 = load ptr, ptr %9, align 8, !tbaa !23
  %33 = load ptr, ptr %10, align 8, !tbaa !22
  %34 = load i64, ptr %13, align 8, !tbaa !9
  %35 = getelementptr inbounds nuw float, ptr %33, i64 %34
  %36 = load float, ptr %35, align 4, !tbaa !24
  %37 = load ptr, ptr %11, align 8, !tbaa !23
  %38 = load i64, ptr %13, align 8, !tbaa !9
  %39 = getelementptr inbounds nuw i64, ptr %37, i64 %38
  %40 = load i64, ptr %39, align 8, !tbaa !9
  call void @_ZN5faiss9heap_pushINS_4CMaxIflEEEEvmPNT_1TEPNS3_2TIES4_S6_(i64 noundef %30, ptr noundef %31, ptr noundef %32, float noundef %36, i64 noundef %40)
  br label %41

41:                                               ; preds = %28
  %42 = load i64, ptr %13, align 8, !tbaa !9
  %43 = add i64 %42, 1
  store i64 %43, ptr %13, align 8, !tbaa !9
  br label %23, !llvm.loop !72

44:                                               ; preds = %27
  br label %65

45:                                               ; preds = %19
  call void @llvm.lifetime.start.p0(i64 8, ptr %14) #3
  store i64 0, ptr %14, align 8, !tbaa !9
  br label %46

46:                                               ; preds = %61, %45
  %47 = load i64, ptr %14, align 8, !tbaa !9
  %48 = load i64, ptr %12, align 8, !tbaa !9
  %49 = icmp ult i64 %47, %48
  br i1 %49, label %51, label %50

50:                                               ; preds = %46
  call void @llvm.lifetime.end.p0(i64 8, ptr %14) #3
  br label %64

51:                                               ; preds = %46
  %52 = load i64, ptr %14, align 8, !tbaa !9
  %53 = add i64 %52, 1
  %54 = load ptr, ptr %8, align 8, !tbaa !22
  %55 = load ptr, ptr %9, align 8, !tbaa !23
  %56 = load ptr, ptr %10, align 8, !tbaa !22
  %57 = load i64, ptr %14, align 8, !tbaa !9
  %58 = getelementptr inbounds nuw float, ptr %56, i64 %57
  %59 = load float, ptr %58, align 4, !tbaa !24
  %60 = load i64, ptr %14, align 8, !tbaa !9
  call void @_ZN5faiss9heap_pushINS_4CMaxIflEEEEvmPNT_1TEPNS3_2TIES4_S6_(i64 noundef %53, ptr noundef %54, ptr noundef %55, float noundef %59, i64 noundef %60)
  br label %61

61:                                               ; preds = %51
  %62 = load i64, ptr %14, align 8, !tbaa !9
  %63 = add i64 %62, 1
  store i64 %63, ptr %14, align 8, !tbaa !9
  br label %46, !llvm.loop !73

64:                                               ; preds = %50
  br label %65

65:                                               ; preds = %64, %44
  call void @llvm.lifetime.start.p0(i64 8, ptr %15) #3
  %66 = load i64, ptr %12, align 8, !tbaa !9
  store i64 %66, ptr %15, align 8, !tbaa !9
  br label %67

67:                                               ; preds = %80, %65
  %68 = load i64, ptr %15, align 8, !tbaa !9
  %69 = load i64, ptr %7, align 8, !tbaa !9
  %70 = icmp ult i64 %68, %69
  br i1 %70, label %72, label %71

71:                                               ; preds = %67
  call void @llvm.lifetime.end.p0(i64 8, ptr %15) #3
  br label %83

72:                                               ; preds = %67
  %73 = call noundef float @_ZN5faiss4CMaxIflE7neutralEv()
  %74 = load ptr, ptr %8, align 8, !tbaa !22
  %75 = load i64, ptr %15, align 8, !tbaa !9
  %76 = getelementptr inbounds nuw float, ptr %74, i64 %75
  store float %73, ptr %76, align 4, !tbaa !24
  %77 = load ptr, ptr %9, align 8, !tbaa !23
  %78 = load i64, ptr %15, align 8, !tbaa !9
  %79 = getelementptr inbounds nuw i64, ptr %77, i64 %78
  store i64 -1, ptr %79, align 8, !tbaa !9
  br label %80

80:                                               ; preds = %72
  %81 = load i64, ptr %15, align 8, !tbaa !9
  %82 = add i64 %81, 1
  store i64 %82, ptr %15, align 8, !tbaa !9
  br label %67, !llvm.loop !74

83:                                               ; preds = %71
  ret void
}

; Function Attrs: alwaysinline norecurse nounwind uwtable
define internal void @_ZN5faiss9HeapArrayINS_4CMaxIflEEE7heapifyEv.omp_outlined(ptr noalias noundef %0, ptr noalias noundef %1, ptr noundef %2) #1 personality ptr @__gxx_personality_v0 {
  %4 = alloca ptr, align 8
  %5 = alloca ptr, align 8
  %6 = alloca ptr, align 8
  %7 = alloca i64, align 8
  %8 = alloca i64, align 8
  %9 = alloca i64, align 8
  %10 = alloca i64, align 8
  %11 = alloca i64, align 8
  %12 = alloca i64, align 8
  %13 = alloca i64, align 8
  %14 = alloca i32, align 4
  %15 = alloca i64, align 8
  store ptr %0, ptr %4, align 8, !tbaa !17
  store ptr %1, ptr %5, align 8, !tbaa !17
  store ptr %2, ptr %6, align 8, !tbaa !65
  %16 = load ptr, ptr %6, align 8, !tbaa !65
  call void @llvm.lifetime.start.p0(i64 8, ptr %7) #3
  call void @llvm.lifetime.start.p0(i64 8, ptr %8) #3
  %17 = getelementptr inbounds nuw %"struct.faiss::HeapArray.0", ptr %16, i32 0, i32 0
  %18 = load i64, ptr %17, align 8, !tbaa !71
  store i64 %18, ptr %8, align 8, !tbaa !9
  call void @llvm.lifetime.start.p0(i64 8, ptr %9) #3
  %19 = load i64, ptr %8, align 8, !tbaa !9
  %20 = sub i64 %19, 0
  %21 = udiv i64 %20, 1
  %22 = sub i64 %21, 1
  store i64 %22, ptr %9, align 8, !tbaa !9
  call void @llvm.lifetime.start.p0(i64 8, ptr %10) #3
  store i64 0, ptr %10, align 8, !tbaa !9
  call void @llvm.lifetime.end.p0(i64 8, ptr %10) #3
  %23 = load i64, ptr %8, align 8, !tbaa !9
  %24 = icmp ult i64 0, %23
  br i1 %24, label %25, label %74

25:                                               ; preds = %3
  call void @llvm.lifetime.start.p0(i64 8, ptr %11) #3
  store i64 0, ptr %11, align 8, !tbaa !9
  call void @llvm.lifetime.start.p0(i64 8, ptr %12) #3
  %26 = load i64, ptr %9, align 8, !tbaa !9
  store i64 %26, ptr %12, align 8, !tbaa !9
  call void @llvm.lifetime.start.p0(i64 8, ptr %13) #3
  store i64 1, ptr %13, align 8, !tbaa !9
  call void @llvm.lifetime.start.p0(i64 4, ptr %14) #3
  store i32 0, ptr %14, align 4, !tbaa !20
  call void @llvm.lifetime.start.p0(i64 8, ptr %15) #3
  %27 = load ptr, ptr %4, align 8
  %28 = load i32, ptr %27, align 4, !tbaa !20
  call void @__kmpc_for_static_init_8u(ptr @1, i32 %28, i32 34, ptr %14, ptr %11, ptr %12, ptr %13, i64 1, i64 1)
  %29 = load i64, ptr %12, align 8, !tbaa !9
  %30 = load i64, ptr %9, align 8, !tbaa !9
  %31 = icmp ugt i64 %29, %30
  br i1 %31, label %32, label %34

32:                                               ; preds = %25
  %33 = load i64, ptr %9, align 8, !tbaa !9
  br label %36

34:                                               ; preds = %25
  %35 = load i64, ptr %12, align 8, !tbaa !9
  br label %36

36:                                               ; preds = %34, %32
  %37 = phi i64 [ %33, %32 ], [ %35, %34 ]
  store i64 %37, ptr %12, align 8, !tbaa !9
  %38 = load i64, ptr %11, align 8, !tbaa !9
  store i64 %38, ptr %7, align 8, !tbaa !9
  br label %39

39:                                               ; preds = %67, %36
  %40 = load i64, ptr %7, align 8, !tbaa !9
  %41 = load i64, ptr %12, align 8, !tbaa !9
  %42 = add i64 %41, 1
  %43 = icmp ult i64 %40, %42
  br i1 %43, label %45, label %44

44:                                               ; preds = %39
  br label %70

45:                                               ; preds = %39
  %46 = load i64, ptr %7, align 8, !tbaa !9
  %47 = mul i64 %46, 1
  %48 = add i64 0, %47
  store i64 %48, ptr %15, align 8, !tbaa !9
  %49 = getelementptr inbounds nuw %"struct.faiss::HeapArray.0", ptr %16, i32 0, i32 1
  %50 = load i64, ptr %49, align 8, !tbaa !69
  %51 = getelementptr inbounds nuw %"struct.faiss::HeapArray.0", ptr %16, i32 0, i32 3
  %52 = load ptr, ptr %51, align 8, !tbaa !67
  %53 = load i64, ptr %15, align 8, !tbaa !9
  %54 = getelementptr inbounds nuw %"struct.faiss::HeapArray.0", ptr %16, i32 0, i32 1
  %55 = load i64, ptr %54, align 8, !tbaa !69
  %56 = mul i64 %53, %55
  %57 = getelementptr inbounds nuw float, ptr %52, i64 %56
  %58 = getelementptr inbounds nuw %"struct.faiss::HeapArray.0", ptr %16, i32 0, i32 2
  %59 = load ptr, ptr %58, align 8, !tbaa !70
  %60 = load i64, ptr %15, align 8, !tbaa !9
  %61 = getelementptr inbounds nuw %"struct.faiss::HeapArray.0", ptr %16, i32 0, i32 1
  %62 = load i64, ptr %61, align 8, !tbaa !69
  %63 = mul i64 %60, %62
  %64 = getelementptr inbounds nuw i64, ptr %59, i64 %63
  invoke void @_ZN5faiss12heap_heapifyINS_4CMaxIflEEEEvmPNT_1TEPNS3_2TIEPKS4_PKS6_m(i64 noundef %50, ptr noundef %57, ptr noundef %64, ptr noundef null, ptr noundef null, i64 noundef 0)
          to label %65 unwind label %75

65:                                               ; preds = %45
  br label %66

66:                                               ; preds = %65
  br label %67

67:                                               ; preds = %66
  %68 = load i64, ptr %7, align 8, !tbaa !9
  %69 = add i64 %68, 1
  store i64 %69, ptr %7, align 8, !tbaa !9
  br label %39

70:                                               ; preds = %44
  br label %71

71:                                               ; preds = %70
  %72 = load ptr, ptr %4, align 8
  %73 = load i32, ptr %72, align 4, !tbaa !20
  call void @__kmpc_for_static_fini(ptr @1, i32 %73)
  call void @llvm.lifetime.end.p0(i64 8, ptr %15) #3
  call void @llvm.lifetime.end.p0(i64 4, ptr %14) #3
  call void @llvm.lifetime.end.p0(i64 8, ptr %13) #3
  call void @llvm.lifetime.end.p0(i64 8, ptr %12) #3
  call void @llvm.lifetime.end.p0(i64 8, ptr %11) #3
  br label %74

74:                                               ; preds = %71, %3
  call void @llvm.lifetime.end.p0(i64 8, ptr %9) #3
  call void @llvm.lifetime.end.p0(i64 8, ptr %8) #3
  call void @llvm.lifetime.end.p0(i64 8, ptr %7) #3
  ret void

75:                                               ; preds = %45
  %76 = landingpad { ptr, i32 }
          catch ptr null
  %77 = extractvalue { ptr, i32 } %76, 0
  call void @__clang_call_terminate(ptr %77) #18
  unreachable
}